target datalayout = "e-m:e-p270:32:32-p271:32:32-p272:64:64-i64:64-i128:128-f80:128-n8:16:32:64-S128"
target triple = "x86_64-pc-linux-gnu"

%"class.cvc5::internal::NodeTemplate" = type { ptr }
%"class.cvc5::internal::expr::NodeValue" = type { i64, i64, ptr, [0 x ptr] }

; Function Attrs: inlinehint mustprogress nounwind uwtable
define linkonce_odr hidden void @_ZNK4cvc58internal12NodeTemplateILb1EE21assertTNodeNotExpiredEv(ptr noundef nonnull align 8 dereferenceable(8) %0) #7 comdat align 2 {
  %2 = alloca ptr, align 8
  store ptr %0, ptr %2, align 8, !tbaa !10
  ret void
}

; Function Attrs: inlinehint mustprogress nounwind uwtable
define linkonce_odr hidden noundef i32 @_ZNK4cvc58internal12NodeTemplateILb1EE7getKindEv(ptr noundef nonnull align 8 dereferenceable(8) %0) #7 comdat align 2 {
  %2 = alloca ptr, align 8
  store ptr %0, ptr %2, align 8, !tbaa !10
  %3 = load ptr, ptr %2, align 8
  call void @_ZNK4cvc58internal12NodeTemplateILb1EE21assertTNodeNotExpiredEv(ptr noundef nonnull align 8 dereferenceable(8) %3)
  %4 = getelementptr inbounds nuw %"class.cvc5::internal::NodeTemplate", ptr %3, i32 0, i32 0
  %5 = load ptr, ptr %4, align 8, !tbaa !27
  %6 = getelementptr inbounds nuw %"class.cvc5::internal::expr::NodeValue", ptr %5, i32 0, i32 1
  %7 = load i64, ptr %6, align 8
  %8 = and i64 %7, 1023
  %9 = trunc i64 %8 to i32
  ret i32 %9
}

; Function Attrs: mustprogress uwtable
define hidden noundef zeroext i1 @_ZN4cvc58internal6theory7strings5utils14isConstantLikeENS0_12NodeTemplateILb1EEE(ptr noundef %0) #5 {
  %2 = alloca ptr, align 8
  store ptr %0, ptr %2, align 8, !tbaa !10
  %3 = call noundef zeroext i1 @_ZNK4cvc58internal12NodeTemplateILb1EE7isConstEv(ptr noundef nonnull align 8 dereferenceable(8) %0)
  br i1 %3, label %10, label %4

4:                                                ; preds = %1
  %5 = call noundef i32 @_ZNK4cvc58internal12NodeTemplateILb1EE7getKindEv(ptr noundef nonnull align 8 dereferenceable(8) %0)
  %6 = icmp eq i32 %5, 344
  br i1 %6, label %10, label %7

7:                                                ; preds = %4
  %8 = call noundef i32 @_ZNK4cvc58internal12NodeTemplateILb1EE7getKindEv(ptr noundef nonnull align 8 dereferenceable(8) %0)
  %9 = icmp eq i32 %8, 337
  br label %10

10:                                               ; preds = %7, %4, %1
  %11 = phi i1 [ true, %4 ], [ true, %1 ], [ %9, %7 ]
  ret i1 %11
}