; Function Attrs: mustprogress uwtable
define hidden noundef zeroext i1 @_ZN4cvc58internal6theory7strings5utils14isConstantLikeENS0_12NodeTemplateILb1EEE(ptr noundef nonnull %0) local_unnamed_addr #4 {
  %2 = tail call noundef zeroext i1 @_ZNK4cvc58internal12NodeTemplateILb1EE7isConstEv(ptr noundef nonnull align 8 dereferenceable(8) %0)
  br i1 %2, label %11, label %3

3:                                                ; preds = %1
  %4 = load ptr, ptr %0, align 8, !tbaa !8
  %5 = getelementptr inbounds nuw i8, ptr %4, i64 8
  %6 = load i64, ptr %5, align 8
  %7 = trunc i64 %6 to i32
  %8 = and i32 %7, 1023
  %9 = icmp eq i32 %8, 344
  %10 = icmp eq i32 %8, 337
  %spec.select = or i1 %9, %10
  br label %11

11:                                               ; preds = %3, %1
  %12 = phi i1 [ true, %1 ], [ %spec.select, %3 ]
  ret i1 %12
}